; Function Attrs: mustprogress uwtable
define noundef zeroext i1 @_ZN5Ipopt12OrigIpoptNLP20IntermediateCallBackENS_13AlgorithmModeEiddddddddiNS_8SmartPtrIKNS_9IpoptDataEEENS2_INS_25IpoptCalculatedQuantitiesEEE(ptr nocapture noundef nonnull readonly align 8 dereferenceable(544) %0, i32 noundef %1, i32 noundef %2, double noundef %3, double noundef %4, double noundef %5, double noundef %6, double noundef %7, double noundef %8, double noundef %9, double noundef %10, i32 noundef %11, ptr nocapture noundef readonly %12, ptr nocapture noundef readonly %13) unnamed_addr #4 align 2 {
  %15 = getelementptr inbounds i8, ptr %0, i64 32
  %16 = load ptr, ptr %15, align 8
  %17 = load ptr, ptr %12, align 8
  %18 = load ptr, ptr %13, align 8
  %19 = load ptr, ptr %16, align 8
  %20 = getelementptr inbounds i8, ptr %19, i64 120
  %21 = load ptr, ptr %20, align 8
  %22 = tail call noundef zeroext i1 %21(ptr noundef nonnull align 8 dereferenceable(12) %16, i32 noundef %1, i32 noundef %2, double noundef %3, double noundef %4, double noundef %5, double noundef %6, double noundef %7, double noundef %8, double noundef %9, double noundef %10, i32 noundef %11, ptr noundef %17, ptr noundef %18)
  ret i1 %22
}